target datalayout = "e-m:e-p270:32:32-p271:32:32-p272:64:64-i64:64-i128:128-f80:128-n8:16:32:64-S128"
target triple = "x86_64-pc-linux-gnu"

%struct.AllocateDesc = type { i32, i32, %union.anon }
%union.anon = type { ptr }
%struct.vfd = type { i32, i16, ptr, i32, i32, i32, i64, ptr, i32, i32 }

@max_safe_fds = dso_local global i32 48, align 4
@.str.1 = private unnamed_addr constant [5 x i8] c"fd.c\00", align 1
@VfdCache = internal global ptr null, align 8
@.str.12 = private unnamed_addr constant [47 x i8] c"out of file descriptors: %m; release and retry\00", align 1
@numExternalFDs = internal global i32 0, align 4
@nfile = internal global i32 0, align 4
@maxAllocatedDescs = internal global i32 0, align 4
@allocatedDescs = internal global ptr null, align 8
@numAllocatedDescs = internal global i32 0, align 4
@.str.27 = private unnamed_addr constant [69 x i8] c"exceeded maxAllocatedDescs (%d) while trying to execute command \22%s\22\00", align 1
@__func__.OpenPipeStream = private unnamed_addr constant [15 x i8] c"OpenPipeStream\00", align 1

; Function Attrs: nounwind uwtable
define internal zeroext i1 @ReleaseLruFile() #0 {
  %1 = alloca i1, align 1
  %2 = load i32, ptr @nfile, align 4
  %3 = icmp sgt i32 %2, 0
  br i1 %3, label %4, label %9

4:                                                ; preds = %0
  %5 = load ptr, ptr @VfdCache, align 8
  %6 = getelementptr inbounds %struct.vfd, ptr %5, i64 0
  %7 = getelementptr inbounds nuw %struct.vfd, ptr %6, i32 0, i32 4
  %8 = load i32, ptr %7, align 4
  call void @LruDelete(i32 noundef %8)
  store i1 true, ptr %1, align 1
  br label %10

9:                                                ; preds = %0
  store i1 false, ptr %1, align 1
  br label %10

10:                                               ; preds = %9, %4
  %11 = load i1, ptr %1, align 1
  ret i1 %11
}

; Function Attrs: nounwind uwtable
define internal void @ReleaseLruFiles() #0 {
  br label %1

1:                                                ; preds = %12, %0
  %2 = load i32, ptr @nfile, align 4
  %3 = load i32, ptr @numAllocatedDescs, align 4
  %4 = add i32 %2, %3
  %5 = load i32, ptr @numExternalFDs, align 4
  %6 = add i32 %4, %5
  %7 = load i32, ptr @max_safe_fds, align 4
  %8 = icmp sge i32 %6, %7
  br i1 %8, label %9, label %13

9:                                                ; preds = %1
  %10 = call zeroext i1 @ReleaseLruFile()
  br i1 %10, label %12, label %11

11:                                               ; preds = %9
  br label %13

12:                                               ; preds = %9
  br label %1, !llvm.loop !10

13:                                               ; preds = %11, %1
  ret void
}

; Function Attrs: nounwind uwtable
define dso_local ptr @OpenPipeStream(ptr noundef %0, ptr noundef %1) #0 {
  %3 = alloca ptr, align 8
  %4 = alloca ptr, align 8
  %5 = alloca ptr, align 8
  %6 = alloca ptr, align 8
  %7 = alloca i32, align 4
  %8 = alloca ptr, align 8
  %9 = alloca i32, align 4
  store ptr %0, ptr %4, align 8
  store ptr %1, ptr %5, align 8
  call void @llvm.lifetime.start.p0(i64 8, ptr %6) #14
  call void @llvm.lifetime.start.p0(i64 4, ptr %7) #14
  %10 = call zeroext i1 @reserveAllocatedDesc()
  br i1 %10, label %25, label %11

11:                                               ; preds = %2
  br label %12

12:                                               ; preds = %11
  br i1 true, label %13, label %15

13:                                               ; preds = %12
  %14 = call zeroext i1 @errstart_cold(i32 noundef 21, ptr noundef null) #16
  br i1 %14, label %17, label %22

15:                                               ; preds = %12
  %16 = call zeroext i1 @errstart(i32 noundef 21, ptr noundef null)
  br i1 %16, label %17, label %22

17:                                               ; preds = %15, %13
  %18 = call i32 @errcode(i32 noundef 197)
  %19 = load i32, ptr @maxAllocatedDescs, align 4
  %20 = load ptr, ptr %4, align 8
  %21 = call i32 (ptr, ...) @errmsg(ptr noundef @.str.27, i32 noundef %19, ptr noundef %20)
  call void @errfinish(ptr noundef @.str.1, i32 noundef 2721, ptr noundef @__func__.OpenPipeStream)
  br label %22

22:                                               ; preds = %17, %15, %13
  unreachable

23:                                               ; No predecessors!
  br label %24

24:                                               ; preds = %23
  br label %25

25:                                               ; preds = %24, %2
  call void @ReleaseLruFiles()
  br label %26

26:                                               ; preds = %77, %25
  %27 = call i32 @fflush(ptr noundef null)
  call void @pqsignal_be(i32 noundef 13, ptr noundef null)
  %28 = call ptr @__errno_location() #15
  store i32 0, ptr %28, align 4
  %29 = load ptr, ptr %4, align 8
  %30 = load ptr, ptr %5, align 8
  %31 = call noalias ptr @popen(ptr noundef %29, ptr noundef %30)
  store ptr %31, ptr %6, align 8
  %32 = call ptr @__errno_location() #15
  %33 = load i32, ptr %32, align 4
  store i32 %33, ptr %7, align 4
  call void @pqsignal_be(i32 noundef 13, ptr noundef inttoptr (i64 1 to ptr))
  %34 = load i32, ptr %7, align 4
  %35 = call ptr @__errno_location() #15
  store i32 %34, ptr %35, align 4
  %36 = load ptr, ptr %6, align 8
  %37 = icmp ne ptr %36, null
  br i1 %37, label %38, label %56

38:                                               ; preds = %26
  call void @llvm.lifetime.start.p0(i64 8, ptr %8) #14
  %39 = load ptr, ptr @allocatedDescs, align 8
  %40 = load i32, ptr @numAllocatedDescs, align 4
  %41 = sext i32 %40 to i64
  %42 = getelementptr inbounds %struct.AllocateDesc, ptr %39, i64 %41
  store ptr %42, ptr %8, align 8
  %43 = load ptr, ptr %8, align 8
  %44 = getelementptr inbounds nuw %struct.AllocateDesc, ptr %43, i32 0, i32 0
  store i32 1, ptr %44, align 8
  %45 = load ptr, ptr %6, align 8
  %46 = load ptr, ptr %8, align 8
  %47 = getelementptr inbounds nuw %struct.AllocateDesc, ptr %46, i32 0, i32 2
  store ptr %45, ptr %47, align 8
  %48 = call i32 @GetCurrentSubTransactionId()
  %49 = load ptr, ptr %8, align 8
  %50 = getelementptr inbounds nuw %struct.AllocateDesc, ptr %49, i32 0, i32 1
  store i32 %48, ptr %50, align 4
  %51 = load i32, ptr @numAllocatedDescs, align 4
  %52 = add i32 %51, 1
  store i32 %52, ptr @numAllocatedDescs, align 4
  %53 = load ptr, ptr %8, align 8
  %54 = getelementptr inbounds nuw %struct.AllocateDesc, ptr %53, i32 0, i32 2
  %55 = load ptr, ptr %54, align 8
  store ptr %55, ptr %3, align 8
  store i32 1, ptr %9, align 4
  call void @llvm.lifetime.end.p0(i64 8, ptr %8) #14
  br label %82

56:                                               ; preds = %26
  %57 = call ptr @__errno_location() #15
  %58 = load i32, ptr %57, align 4
  %59 = icmp eq i32 %58, 24
  br i1 %59, label %64, label %60

60:                                               ; preds = %56
  %61 = call ptr @__errno_location() #15
  %62 = load i32, ptr %61, align 4
  %63 = icmp eq i32 %62, 23
  br i1 %63, label %64, label %81

64:                                               ; preds = %60, %56
  br label %65

65:                                               ; preds = %64
  br i1 false, label %66, label %68

66:                                               ; preds = %65
  %67 = call zeroext i1 @errstart_cold(i32 noundef 15, ptr noundef null) #16
  br i1 %67, label %70, label %73

68:                                               ; preds = %65
  %69 = call zeroext i1 @errstart(i32 noundef 15, ptr noundef null)
  br i1 %69, label %70, label %73

70:                                               ; preds = %68, %66
  %71 = call i32 @errcode(i32 noundef 197)
  %72 = call i32 (ptr, ...) @errmsg(ptr noundef @.str.12)
  call void @errfinish(ptr noundef @.str.1, i32 noundef 2749, ptr noundef @__func__.OpenPipeStream)
  br label %73

73:                                               ; preds = %70, %68, %66
  br label %74

74:                                               ; preds = %73
  br label %75

75:                                               ; preds = %74
  %76 = call zeroext i1 @ReleaseLruFile()
  br i1 %76, label %77, label %78

77:                                               ; preds = %75
  br label %26

78:                                               ; preds = %75
  %79 = load i32, ptr %7, align 4
  %80 = call ptr @__errno_location() #15
  store i32 %79, ptr %80, align 4
  br label %81

81:                                               ; preds = %78, %60
  store ptr null, ptr %3, align 8
  store i32 1, ptr %9, align 4
  br label %82

82:                                               ; preds = %81, %38
  call void @llvm.lifetime.end.p0(i64 4, ptr %7) #14
  call void @llvm.lifetime.end.p0(i64 8, ptr %6) #14
  %83 = load ptr, ptr %3, align 8
  ret ptr %83
}