; Function Attrs: nounwind uwtable
define dso_local ptr @OpenPipeStream(ptr noundef %0, ptr noundef readonly captures(none) %1) local_unnamed_addr #0 {
  %3 = tail call fastcc zeroext i1 @reserveAllocatedDesc()
  br i1 %3, label %9, label %4

4:                                                ; preds = %2
  %5 = tail call zeroext i1 @errstart_cold(i32 noundef 21, ptr noundef null) #27
  tail call void @llvm.assume(i1 %5)
  %6 = tail call i32 @errcode(i32 noundef 197) #25
  %7 = load i32, ptr @maxAllocatedDescs, align 4
  %8 = tail call i32 (ptr, ...) @errmsg(ptr noundef nonnull @.str.27, i32 noundef %7, ptr noundef %0) #25
  tail call void @errfinish(ptr noundef nonnull @.str.1, i32 noundef 2721, ptr noundef nonnull @__func__.OpenPipeStream) #25
  unreachable

9:                                                ; preds = %2
  %10 = load i32, ptr @nfile, align 4
  %11 = load i32, ptr @numAllocatedDescs, align 4
  %12 = add i32 %11, %10
  %13 = load i32, ptr @numExternalFDs, align 4
  %14 = add i32 %12, %13
  %15 = load i32, ptr @max_safe_fds, align 4
  %.not1.i = icmp sge i32 %14, %15
  %16 = icmp sgt i32 %10, 0
  %or.cond2.i = and i1 %16, %.not1.i
  br i1 %or.cond2.i, label %ReleaseLruFile.exit.i, label %ReleaseLruFiles.exit.preheader

ReleaseLruFile.exit.i:                            ; preds = %9, %ReleaseLruFile.exit.i
  %17 = load ptr, ptr @VfdCache, align 8
  %18 = getelementptr inbounds nuw i8, ptr %17, i64 20
  %19 = load i32, ptr %18, align 4
  tail call fastcc void @LruDelete(i32 noundef %19)
  %20 = load i32, ptr @nfile, align 4
  %21 = load i32, ptr @numAllocatedDescs, align 4
  %22 = add i32 %21, %20
  %23 = load i32, ptr @numExternalFDs, align 4
  %24 = add i32 %22, %23
  %25 = load i32, ptr @max_safe_fds, align 4
  %.not.i = icmp sge i32 %24, %25
  %26 = icmp sgt i32 %20, 0
  %or.cond.i = and i1 %26, %.not.i
  br i1 %or.cond.i, label %ReleaseLruFile.exit.i, label %ReleaseLruFiles.exit.preheader, !llvm.loop !9

ReleaseLruFiles.exit.preheader:                   ; preds = %ReleaseLruFile.exit.i, %9
  br label %ReleaseLruFiles.exit

ReleaseLruFiles.exit:                             ; preds = %ReleaseLruFiles.exit.preheader, %ReleaseLruFile.exit
  %27 = tail call i32 @fflush(ptr noundef null)
  tail call void @pqsignal_be(i32 noundef 13, ptr noundef null) #25
  %28 = tail call ptr @__errno_location() #26
  store i32 0, ptr %28, align 4
  %29 = tail call noalias ptr @popen(ptr noundef %0, ptr noundef %1)
  %30 = load i32, ptr %28, align 4
  tail call void @pqsignal_be(i32 noundef 13, ptr noundef nonnull inttoptr (i64 1 to ptr)) #25
  store i32 %30, ptr %28, align 4
  %.not = icmp eq ptr %29, null
  br i1 %.not, label %42, label %31

31:                                               ; preds = %ReleaseLruFiles.exit
  %32 = load ptr, ptr @allocatedDescs, align 8
  %33 = load i32, ptr @numAllocatedDescs, align 4
  %34 = sext i32 %33 to i64
  %35 = getelementptr inbounds %struct.AllocateDesc, ptr %32, i64 %34
  store i32 1, ptr %35, align 8
  %36 = getelementptr inbounds nuw i8, ptr %35, i64 8
  store ptr %29, ptr %36, align 8
  %37 = tail call i32 @GetCurrentSubTransactionId() #25
  %38 = getelementptr inbounds nuw i8, ptr %35, i64 4
  store i32 %37, ptr %38, align 4
  %39 = load i32, ptr @numAllocatedDescs, align 4
  %40 = add i32 %39, 1
  store i32 %40, ptr @numAllocatedDescs, align 4
  %41 = load ptr, ptr %36, align 8
  br label %.loopexit

42:                                               ; preds = %ReleaseLruFiles.exit
  %.off = add i32 %30, -23
  %switch = icmp ult i32 %.off, 2
  br i1 %switch, label %43, label %.loopexit

43:                                               ; preds = %42
  %44 = tail call zeroext i1 @errstart(i32 noundef 15, ptr noundef null) #25
  br i1 %44, label %45, label %48

45:                                               ; preds = %43
  %46 = tail call i32 @errcode(i32 noundef 197) #25
  %47 = tail call i32 (ptr, ...) @errmsg(ptr noundef nonnull @.str.12) #25
  tail call void @errfinish(ptr noundef nonnull @.str.1, i32 noundef 2749, ptr noundef nonnull @__func__.OpenPipeStream) #25
  br label %48

48:                                               ; preds = %45, %43
  %49 = load i32, ptr @nfile, align 4
  %50 = icmp sgt i32 %49, 0
  br i1 %50, label %ReleaseLruFile.exit, label %54

ReleaseLruFile.exit:                              ; preds = %48
  %51 = load ptr, ptr @VfdCache, align 8
  %52 = getelementptr inbounds nuw i8, ptr %51, i64 20
  %53 = load i32, ptr %52, align 4
  tail call fastcc void @LruDelete(i32 noundef %53)
  br label %ReleaseLruFiles.exit

54:                                               ; preds = %48
  store i32 %30, ptr %28, align 4
  br label %.loopexit

.loopexit:                                        ; preds = %42, %54, %31
  %.0 = phi ptr [ %41, %31 ], [ null, %54 ], [ null, %42 ]
  ret ptr %.0
}